target datalayout = "e-m:e-p270:32:32-p271:32:32-p272:64:64-i64:64-i128:128-f80:128-n8:16:32:64-S128"
target triple = "x86_64-pc-linux-gnu"

%struct.Abc_Frame_t_ = type { ptr, ptr, ptr, ptr, ptr, ptr, ptr, ptr, ptr, ptr, i32, i32, i32, i32, i32, ptr, float, float, i32, i32, ptr, ptr, ptr, double, double, ptr, ptr, ptr, ptr, ptr, ptr, ptr, ptr, ptr, ptr, ptr, ptr, float, ptr, i32, ptr, ptr, ptr, ptr, ptr, i32, i32, i32, i32, i32, i32, ptr, ptr, ptr, ptr, ptr, ptr, i32, i32, ptr, ptr, ptr, ptr, ptr, ptr, ptr, ptr, ptr, ptr, ptr, ptr, ptr, ptr, ptr, ptr, ptr, ptr, ptr, ptr, ptr, ptr, ptr, ptr, ptr, ptr, ptr, ptr, ptr, ptr }

@.str.39 = private unnamed_addr constant [4 x i8] c"yes\00", align 1
@.str.40 = private unnamed_addr constant [3 x i8] c"no\00", align 1
@.str.79 = private unnamed_addr constant [38 x i8] c"\09-h     : prints the command summary\0A\00", align 1
@.str.80 = private unnamed_addr constant [38 x i8] c"\09<file> : the name of a file to read\0A\00", align 1
@.str.102 = private unnamed_addr constant [3 x i8] c"vh\00", align 1
@.str.166 = private unnamed_addr constant [62 x i8] c"\09-v     : toggle printing verbose information [default = %s]\0A\00", align 1
@.str.207 = private unnamed_addr constant [34 x i8] c"usage: reset_constr [-vh] <file>\0A\00", align 1
@.str.208 = private unnamed_addr constant [46 x i8] c"\09         removes current timing constraints\0A\00", align 1

; Function Attrs: nounwind uwtable
define internal i32 @Scl_CommandResetConstr(ptr noundef %0, i32 noundef %1, ptr noundef %2) #0 {
  %4 = alloca i32, align 4
  %5 = alloca ptr, align 8
  %6 = alloca i32, align 4
  %7 = alloca ptr, align 8
  %8 = alloca i32, align 4
  %9 = alloca i32, align 4
  %10 = alloca i32, align 4
  store ptr %0, ptr %5, align 8, !tbaa !3
  store i32 %1, ptr %6, align 4, !tbaa !29
  store ptr %2, ptr %7, align 8, !tbaa !50
  call void @llvm.lifetime.start.p0(i64 4, ptr %8) #12
  call void @llvm.lifetime.start.p0(i64 4, ptr %9) #12
  store i32 0, ptr %9, align 4, !tbaa !29
  call void (...) @Extra_UtilGetoptReset()
  br label %11

11:                                               ; preds = %23, %3
  %12 = load i32, ptr %6, align 4, !tbaa !29
  %13 = load ptr, ptr %7, align 8, !tbaa !50
  %14 = call i32 @Extra_UtilGetopt(i32 noundef %12, ptr noundef %13, ptr noundef @.str.102)
  store i32 %14, ptr %8, align 4, !tbaa !29
  %15 = icmp ne i32 %14, -1
  br i1 %15, label %16, label %24

16:                                               ; preds = %11
  %17 = load i32, ptr %8, align 4, !tbaa !29
  switch i32 %17, label %22 [
    i32 118, label %18
    i32 104, label %21
  ]

18:                                               ; preds = %16
  %19 = load i32, ptr %9, align 4, !tbaa !29
  %20 = xor i32 %19, 1
  store i32 %20, ptr %9, align 4, !tbaa !29
  br label %23

21:                                               ; preds = %16
  br label %26

22:                                               ; preds = %16
  br label %26

23:                                               ; preds = %18
  br label %11, !llvm.loop !124

24:                                               ; preds = %11
  call void @Abc_FrameSetDrivingCell(ptr noundef null)
  call void @Abc_FrameSetMaxLoad(float noundef 0.000000e+00)
  %25 = load ptr, ptr %5, align 8, !tbaa !3
  call void @Scl_ConUpdateMan(ptr noundef %25, ptr noundef null)
  store i32 0, ptr %4, align 4
  store i32 1, ptr %10, align 4
  br label %50

26:                                               ; preds = %22, %21
  %27 = load ptr, ptr %5, align 8, !tbaa !3
  %28 = getelementptr inbounds nuw %struct.Abc_Frame_t_, ptr %27, i32 0, i32 21
  %29 = load ptr, ptr %28, align 8, !tbaa !59
  %30 = call i32 (ptr, ptr, ...) @fprintf(ptr noundef %29, ptr noundef @.str.207) #12
  %31 = load ptr, ptr %5, align 8, !tbaa !3
  %32 = getelementptr inbounds nuw %struct.Abc_Frame_t_, ptr %31, i32 0, i32 21
  %33 = load ptr, ptr %32, align 8, !tbaa !59
  %34 = call i32 (ptr, ptr, ...) @fprintf(ptr noundef %33, ptr noundef @.str.208) #12
  %35 = load ptr, ptr %5, align 8, !tbaa !3
  %36 = getelementptr inbounds nuw %struct.Abc_Frame_t_, ptr %35, i32 0, i32 21
  %37 = load ptr, ptr %36, align 8, !tbaa !59
  %38 = load i32, ptr %9, align 4, !tbaa !29
  %39 = icmp ne i32 %38, 0
  %40 = select i1 %39, ptr @.str.39, ptr @.str.40
  %41 = call i32 (ptr, ptr, ...) @fprintf(ptr noundef %37, ptr noundef @.str.166, ptr noundef %40) #12
  %42 = load ptr, ptr %5, align 8, !tbaa !3
  %43 = getelementptr inbounds nuw %struct.Abc_Frame_t_, ptr %42, i32 0, i32 21
  %44 = load ptr, ptr %43, align 8, !tbaa !59
  %45 = call i32 (ptr, ptr, ...) @fprintf(ptr noundef %44, ptr noundef @.str.79) #12
  %46 = load ptr, ptr %5, align 8, !tbaa !3
  %47 = getelementptr inbounds nuw %struct.Abc_Frame_t_, ptr %46, i32 0, i32 21
  %48 = load ptr, ptr %47, align 8, !tbaa !59
  %49 = call i32 (ptr, ptr, ...) @fprintf(ptr noundef %48, ptr noundef @.str.80) #12
  store i32 1, ptr %4, align 4
  store i32 1, ptr %10, align 4
  br label %50

50:                                               ; preds = %26, %24
  call void @llvm.lifetime.end.p0(i64 4, ptr %9) #12
  call void @llvm.lifetime.end.p0(i64 4, ptr %8) #12
  %51 = load i32, ptr %4, align 4
  ret i32 %51
}