; Function Attrs: nounwind uwtable
define internal range(i32 0, 2) i32 @Scl_CommandResetConstr(ptr noundef captures(none) %0, i32 noundef %1, ptr noundef %2) #0 {
  tail call void (...) @Extra_UtilGetoptReset() #12
  br label %4

4:                                                ; preds = %6, %3
  %.0 = phi i32 [ 0, %3 ], [ %7, %6 ]
  %5 = tail call i32 @Extra_UtilGetopt(i32 noundef %1, ptr noundef %2, ptr noundef nonnull @.str.102) #12
  switch i32 %5, label %9 [
    i32 -1, label %8
    i32 118, label %6
  ]

6:                                                ; preds = %4
  %7 = xor i32 %.0, 1
  br label %4, !llvm.loop !124

8:                                                ; preds = %4
  tail call void @Abc_FrameSetDrivingCell(ptr noundef null) #12
  tail call void @Abc_FrameSetMaxLoad(float noundef 0.000000e+00) #12
  tail call fastcc void @Scl_ConUpdateMan(ptr noundef %0)
  br label %22

9:                                                ; preds = %4
  %10 = getelementptr inbounds nuw i8, ptr %0, i64 136
  %11 = load ptr, ptr %10, align 8, !tbaa !84
  %12 = tail call i64 @fwrite(ptr nonnull @.str.207, i64 33, i64 1, ptr %11)
  %13 = load ptr, ptr %10, align 8, !tbaa !84
  %14 = tail call i64 @fwrite(ptr nonnull @.str.208, i64 45, i64 1, ptr %13)
  %15 = load ptr, ptr %10, align 8, !tbaa !84
  %.not13 = icmp eq i32 %.0, 0
  %16 = select i1 %.not13, ptr @.str.40, ptr @.str.39
  %17 = tail call i32 (ptr, ptr, ...) @fprintf(ptr noundef %15, ptr noundef nonnull @.str.166, ptr noundef nonnull %16) #12
  %18 = load ptr, ptr %10, align 8, !tbaa !84
  %19 = tail call i64 @fwrite(ptr nonnull @.str.79, i64 37, i64 1, ptr %18)
  %20 = load ptr, ptr %10, align 8, !tbaa !84
  %21 = tail call i64 @fwrite(ptr nonnull @.str.80, i64 37, i64 1, ptr %20)
  br label %22

22:                                               ; preds = %9, %8
  %.011 = phi i32 [ 1, %9 ], [ 0, %8 ]
  ret i32 %.011
}